; Function Attrs: mustprogress uwtable
define hidden <2 x float> @_ZN6Assimp11XGLImporter8ReadVec2ERN4pugi8xml_nodeE(ptr nocapture nonnull readnone align 8 %this, ptr noundef nonnull align 8 dereferenceable(8) %node) local_unnamed_addr #10 align 2 personality ptr @__gxx_personality_v0 {
entry:
  %ref.tmp.i16 = alloca ptr, align 8
  %ret.i = alloca float, align 4
  %ref.tmp.i = alloca ptr, align 8
  %val = alloca %"class.std::__cxx11::basic_string", align 8
  %v = alloca [2 x float], align 8
  call void @_ZNSt7__cxx1112basic_stringIcSt11char_traitsIcESaIcEEC1Ev(ptr noundef nonnull align 8 dereferenceable(32) %val) #24
  %v.4.gep44.sroa_idx = getelementptr inbounds i8, ptr %v, i64 4
  %call = invoke noundef zeroext i1 @_ZN6Assimp10TXmlParserIN4pugi8xml_nodeEE16getValueAsStringERS2_RNSt7__cxx1112basic_stringIcSt11char_traitsIcESaIcEEE(ptr noundef nonnull align 8 dereferenceable(8) %node, ptr noundef nonnull align 8 dereferenceable(32) %val)
          to label %invoke.cont unwind label %lpad.loopexit.split-lp

invoke.cont:                                      ; preds = %entry
  %call2 = call noundef ptr @_ZNKSt7__cxx1112basic_stringIcSt11char_traitsIcESaIcEE5c_strEv(ptr noundef nonnull align 8 dereferenceable(32) %val) #24
  store i64 0, ptr %v, align 8
  br label %while.cond.i.i.preheader

while.cond.i.i.preheader:                         ; preds = %invoke.cont, %if.end14
  %cmp10.not = phi i1 [ false, %invoke.cont ], [ true, %if.end14 ]
  %cmp = phi i1 [ true, %invoke.cont ], [ false, %if.end14 ]
  %indvars.iv.sroa.phi = phi ptr [ %v, %invoke.cont ], [ %v.4.gep44.sroa_idx, %if.end14 ]
  %s.037 = phi ptr [ %call2, %invoke.cont ], [ %incdec.ptr, %if.end14 ]
  br label %while.cond.i.i

while.cond.i.i:                                   ; preds = %while.cond.i.i.preheader, %while.body.i.i
  %in.addr.0.i.i = phi ptr [ %incdec.ptr.i.i, %while.body.i.i ], [ %s.037, %while.cond.i.i.preheader ]
  %0 = load i8, ptr %in.addr.0.i.i, align 1
  switch i8 %0, label %if.end [
    i8 32, label %while.body.i.i
    i8 9, label %while.body.i.i
    i8 13, label %if.then
    i8 10, label %if.then
    i8 0, label %if.then
    i8 12, label %if.then
  ]

while.body.i.i:                                   ; preds = %while.cond.i.i, %while.cond.i.i
  %incdec.ptr.i.i = getelementptr inbounds i8, ptr %in.addr.0.i.i, i64 1
  br label %while.cond.i.i, !llvm.loop !50

if.then:                                          ; preds = %while.cond.i.i, %while.cond.i.i, %while.cond.i.i, %while.cond.i.i
  call void @llvm.lifetime.start.p0(i64 8, ptr nonnull %ref.tmp.i)
  %call.i4 = invoke noundef zeroext i1 @_ZN6Assimp13DefaultLogger12isNullLoggerEv()
          to label %call.i.noexc unwind label %lpad.loopexit.split-lp

call.i.noexc:                                     ; preds = %if.then
  br i1 %call.i4, label %_ZN6Assimp12LogFunctionsINS_11XGLImporterEE8LogErrorIJRA37_KcEEEvDpOT_.exit, label %if.then.i

if.then.i:                                        ; preds = %call.i.noexc
  %call1.i5 = invoke noundef ptr @_ZN6Assimp13DefaultLogger3getEv()
          to label %call1.i.noexc unwind label %lpad.loopexit.split-lp

call1.i.noexc:                                    ; preds = %if.then.i
  store ptr @.str, ptr %ref.tmp.i, align 8
  invoke void @_ZN6Assimp6Logger5errorIJPKcRA37_S2_EEEvDpOT_(ptr noundef nonnull align 8 dereferenceable(12) %call1.i5, ptr noundef nonnull align 8 dereferenceable(8) %ref.tmp.i, ptr noundef nonnull align 1 dereferenceable(37) @.str.80)
          to label %_ZN6Assimp12LogFunctionsINS_11XGLImporterEE8LogErrorIJRA37_KcEEEvDpOT_.exit unwind label %lpad.loopexit.split-lp

_ZN6Assimp12LogFunctionsINS_11XGLImporterEE8LogErrorIJRA37_KcEEEvDpOT_.exit: ; preds = %call1.i.noexc, %call.i.noexc
  call void @llvm.lifetime.end.p0(i64 8, ptr nonnull %ref.tmp.i)
  br label %cleanup

lpad.loopexit:                                    ; preds = %if.end
  %lpad.loopexit34 = landingpad { ptr, i32 }
          cleanup
  br label %lpad

lpad.loopexit.split-lp:                           ; preds = %entry, %if.then, %if.then.i, %call1.i.noexc, %if.then12, %if.then.i17, %call1.i.noexc20
  %lpad.loopexit.split-lp35 = landingpad { ptr, i32 }
          cleanup
  br label %lpad

lpad:                                             ; preds = %lpad.loopexit.split-lp, %lpad.loopexit
  %lpad.phi = phi { ptr, i32 } [ %lpad.loopexit34, %lpad.loopexit ], [ %lpad.loopexit.split-lp35, %lpad.loopexit.split-lp ]
  call void @_ZNSt7__cxx1112basic_stringIcSt11char_traitsIcESaIcEED1Ev(ptr noundef nonnull align 8 dereferenceable(32) %val) #24
  resume { ptr, i32 } %lpad.phi

if.end:                                           ; preds = %while.cond.i.i
  call void @llvm.lifetime.start.p0(i64 4, ptr nonnull %ret.i)
  store float 0.000000e+00, ptr %ret.i, align 4
  %call.i7 = invoke noundef ptr @_ZN6Assimp17fast_atoreal_moveIf17DeadlyImportErrorEEPKcS3_RT_b(ptr noundef nonnull %in.addr.0.i.i, ptr noundef nonnull align 4 dereferenceable(4) %ret.i, i1 noundef zeroext true)
          to label %invoke.cont6 unwind label %lpad.loopexit

invoke.cont6:                                     ; preds = %if.end
  %1 = load float, ptr %ret.i, align 4
  call void @llvm.lifetime.end.p0(i64 4, ptr nonnull %ret.i)
  store float %1, ptr %indvars.iv.sroa.phi, align 4
  br label %while.cond.i.i8

while.cond.i.i8:                                  ; preds = %while.body.i.i10, %invoke.cont6
  %in.addr.0.i.i9 = phi ptr [ %call.i7, %invoke.cont6 ], [ %incdec.ptr.i.i11, %while.body.i.i10 ]
  %2 = load i8, ptr %in.addr.0.i.i9, align 1
  switch i8 %2, label %invoke.cont8 [
    i8 32, label %while.body.i.i10
    i8 9, label %while.body.i.i10
  ]

while.body.i.i10:                                 ; preds = %while.cond.i.i8, %while.cond.i.i8
  %incdec.ptr.i.i11 = getelementptr inbounds i8, ptr %in.addr.0.i.i9, i64 1
  br label %while.cond.i.i8, !llvm.loop !50

invoke.cont8:                                     ; preds = %while.cond.i.i8
  %cmp11.not = icmp eq i8 %2, 44
  %or.cond = or i1 %cmp10.not, %cmp11.not
  br i1 %or.cond, label %if.end14, label %if.then12

if.then12:                                        ; preds = %invoke.cont8
  call void @llvm.lifetime.start.p0(i64 8, ptr nonnull %ref.tmp.i16)
  %call.i19 = invoke noundef zeroext i1 @_ZN6Assimp13DefaultLogger12isNullLoggerEv()
          to label %call.i.noexc18 unwind label %lpad.loopexit.split-lp

call.i.noexc18:                                   ; preds = %if.then12
  br i1 %call.i19, label %_ZN6Assimp12LogFunctionsINS_11XGLImporterEE8LogErrorIJRA37_KcEEEvDpOT_.exit23, label %if.then.i17

if.then.i17:                                      ; preds = %call.i.noexc18
  %call1.i21 = invoke noundef ptr @_ZN6Assimp13DefaultLogger3getEv()
          to label %call1.i.noexc20 unwind label %lpad.loopexit.split-lp

call1.i.noexc20:                                  ; preds = %if.then.i17
  store ptr @.str, ptr %ref.tmp.i16, align 8
  invoke void @_ZN6Assimp6Logger5errorIJPKcRA37_S2_EEEvDpOT_(ptr noundef nonnull align 8 dereferenceable(12) %call1.i21, ptr noundef nonnull align 8 dereferenceable(8) %ref.tmp.i16, ptr noundef nonnull align 1 dereferenceable(37) @.str.81)
          to label %_ZN6Assimp12LogFunctionsINS_11XGLImporterEE8LogErrorIJRA37_KcEEEvDpOT_.exit23 unwind label %lpad.loopexit.split-lp

_ZN6Assimp12LogFunctionsINS_11XGLImporterEE8LogErrorIJRA37_KcEEEvDpOT_.exit23: ; preds = %call1.i.noexc20, %call.i.noexc18
  call void @llvm.lifetime.end.p0(i64 8, ptr nonnull %ref.tmp.i16)
  br label %cleanup

if.end14:                                         ; preds = %invoke.cont8
  %incdec.ptr = getelementptr inbounds i8, ptr %in.addr.0.i.i9, i64 1
  br i1 %cmp, label %while.cond.i.i.preheader, label %for.end, !llvm.loop !111

for.end:                                          ; preds = %if.end14
  %v.0. = load <2 x float>, ptr %v, align 8
  br label %cleanup

cleanup:                                          ; preds = %_ZN6Assimp12LogFunctionsINS_11XGLImporterEE8LogErrorIJRA37_KcEEEvDpOT_.exit23, %_ZN6Assimp12LogFunctionsINS_11XGLImporterEE8LogErrorIJRA37_KcEEEvDpOT_.exit, %for.end
  %retval.sroa.0.0 = phi <2 x float> [ zeroinitializer, %_ZN6Assimp12LogFunctionsINS_11XGLImporterEE8LogErrorIJRA37_KcEEEvDpOT_.exit23 ], [ zeroinitializer, %_ZN6Assimp12LogFunctionsINS_11XGLImporterEE8LogErrorIJRA37_KcEEEvDpOT_.exit ], [ %v.0., %for.end ]
  call void @_ZNSt7__cxx1112basic_stringIcSt11char_traitsIcESaIcEED1Ev(ptr noundef nonnull align 8 dereferenceable(32) %val) #24
  ret <2 x float> %retval.sroa.0.0
}